(lp0
(lp1
(I563
I108
tp2
a(I563
I664
tp3
a(I710
I664
tp4
a(I710
I108
tp5
aa(lp6
(I387
I116
tp7
a(I387
I403
tp8
a(I526
I403
tp9
a(I526
I116
tp10
aa(lp11
(I190
I428
tp12
a(I190
I537
tp13
a(I335
I537
tp14
a(I335
I428
tp15
aa(lp16
(I39
I217
tp17
a(I39
I315
tp18
a(I115
I315
tp19
a(I115
I217
tp20
aa(lp21
(I463
I664
tp22
a(I463
I692
tp23
a(I547
I692
tp24
a(I547
I664
tp25
aa.